target datalayout = "e-m:e-p270:32:32-p271:32:32-p272:64:64-i64:64-i128:128-f80:128-n8:16:32:64-S128"
target triple = "x86_64-pc-linux-gnu"

%struct.UString = type { ptr, i32, i32 }

; Function Attrs: nounwind uwtable
define internal void @ustr_resize(ptr noundef %0, i32 noundef %1, ptr noundef %2) #0 {
  %4 = alloca ptr, align 8
  %5 = alloca i32, align 4
  %6 = alloca ptr, align 8
  store ptr %0, ptr %4, align 8, !tbaa !4
  store i32 %1, ptr %5, align 4, !tbaa !17
  store ptr %2, ptr %6, align 8, !tbaa !18
  %7 = load ptr, ptr %6, align 8, !tbaa !18
  %8 = load i32, ptr %7, align 4, !tbaa !17
  %9 = icmp sgt i32 %8, 0
  br i1 %9, label %10, label %11

10:                                               ; preds = %3
  br label %36

11:                                               ; preds = %3
  %12 = load ptr, ptr %4, align 8, !tbaa !4
  %13 = getelementptr inbounds nuw %struct.UString, ptr %12, i32 0, i32 0
  %14 = load ptr, ptr %13, align 8, !tbaa !9
  %15 = load i32, ptr %5, align 4, !tbaa !17
  %16 = add nsw i32 %15, 1
  %17 = sext i32 %16 to i64
  %18 = mul i64 2, %17
  %19 = call ptr @uprv_realloc_77(ptr noundef %14, i64 noundef %18) #8
  %20 = load ptr, ptr %4, align 8, !tbaa !4
  %21 = getelementptr inbounds nuw %struct.UString, ptr %20, i32 0, i32 0
  store ptr %19, ptr %21, align 8, !tbaa !9
  %22 = load ptr, ptr %4, align 8, !tbaa !4
  %23 = getelementptr inbounds nuw %struct.UString, ptr %22, i32 0, i32 0
  %24 = load ptr, ptr %23, align 8, !tbaa !9
  %25 = icmp eq ptr %24, null
  br i1 %25, label %26, label %32

26:                                               ; preds = %11
  %27 = load ptr, ptr %6, align 8, !tbaa !18
  store i32 7, ptr %27, align 4, !tbaa !17
  %28 = load ptr, ptr %4, align 8, !tbaa !4
  %29 = getelementptr inbounds nuw %struct.UString, ptr %28, i32 0, i32 2
  store i32 0, ptr %29, align 4, !tbaa !13
  %30 = load ptr, ptr %4, align 8, !tbaa !4
  %31 = getelementptr inbounds nuw %struct.UString, ptr %30, i32 0, i32 1
  store i32 0, ptr %31, align 8, !tbaa !14
  br label %36

32:                                               ; preds = %11
  %33 = load i32, ptr %5, align 4, !tbaa !17
  %34 = load ptr, ptr %4, align 8, !tbaa !4
  %35 = getelementptr inbounds nuw %struct.UString, ptr %34, i32 0, i32 2
  store i32 %33, ptr %35, align 4, !tbaa !13
  br label %36

36:                                               ; preds = %32, %26, %10
  ret void
}

; Function Attrs: nounwind uwtable
define dso_local void @ustr_uscat(ptr noundef %0, ptr noundef %1, i32 noundef %2, ptr noundef %3) #0 {
  %5 = alloca ptr, align 8
  %6 = alloca ptr, align 8
  %7 = alloca i32, align 4
  %8 = alloca ptr, align 8
  store ptr %0, ptr %5, align 8, !tbaa !4
  store ptr %1, ptr %6, align 8, !tbaa !23
  store i32 %2, ptr %7, align 4, !tbaa !17
  store ptr %3, ptr %8, align 8, !tbaa !18
  %9 = load ptr, ptr %8, align 8, !tbaa !18
  %10 = load i32, ptr %9, align 4, !tbaa !17
  %11 = icmp sgt i32 %10, 0
  br i1 %11, label %12, label %13

12:                                               ; preds = %4
  br label %77

13:                                               ; preds = %4
  %14 = load ptr, ptr %5, align 8, !tbaa !4
  %15 = getelementptr inbounds nuw %struct.UString, ptr %14, i32 0, i32 2
  %16 = load i32, ptr %15, align 4, !tbaa !13
  %17 = load ptr, ptr %5, align 8, !tbaa !4
  %18 = getelementptr inbounds nuw %struct.UString, ptr %17, i32 0, i32 1
  %19 = load i32, ptr %18, align 8, !tbaa !14
  %20 = load i32, ptr %7, align 4, !tbaa !17
  %21 = add nsw i32 %19, %20
  %22 = icmp slt i32 %16, %21
  br i1 %22, label %23, label %49

23:                                               ; preds = %13
  %24 = load ptr, ptr %5, align 8, !tbaa !4
  %25 = load ptr, ptr %5, align 8, !tbaa !4
  %26 = getelementptr inbounds nuw %struct.UString, ptr %25, i32 0, i32 1
  %27 = load i32, ptr %26, align 8, !tbaa !14
  %28 = load i32, ptr %7, align 4, !tbaa !17
  %29 = add nsw i32 %27, %28
  %30 = icmp slt i32 %29, 128
  br i1 %30, label %31, label %32

31:                                               ; preds = %23
  br label %41

32:                                               ; preds = %23
  %33 = load ptr, ptr %5, align 8, !tbaa !4
  %34 = getelementptr inbounds nuw %struct.UString, ptr %33, i32 0, i32 1
  %35 = load i32, ptr %34, align 8, !tbaa !14
  %36 = mul nsw i32 2, %35
  %37 = load i32, ptr %7, align 4, !tbaa !17
  %38 = add nsw i32 %36, %37
  %39 = add nsw i32 %38, 128
  %40 = and i32 %39, -128
  br label %41

41:                                               ; preds = %32, %31
  %42 = phi i32 [ 128, %31 ], [ %40, %32 ]
  %43 = load ptr, ptr %8, align 8, !tbaa !18
  call void @ustr_resize(ptr noundef %24, i32 noundef %42, ptr noundef %43)
  %44 = load ptr, ptr %8, align 8, !tbaa !18
  %45 = load i32, ptr %44, align 4, !tbaa !17
  %46 = icmp sgt i32 %45, 0
  br i1 %46, label %47, label %48

47:                                               ; preds = %41
  br label %77

48:                                               ; preds = %41
  br label %49

49:                                               ; preds = %48, %13
  br label %50

50:                                               ; preds = %49
  %51 = load ptr, ptr %5, align 8, !tbaa !4
  %52 = getelementptr inbounds nuw %struct.UString, ptr %51, i32 0, i32 0
  %53 = load ptr, ptr %52, align 8, !tbaa !9
  %54 = load ptr, ptr %5, align 8, !tbaa !4
  %55 = getelementptr inbounds nuw %struct.UString, ptr %54, i32 0, i32 1
  %56 = load i32, ptr %55, align 8, !tbaa !14
  %57 = sext i32 %56 to i64
  %58 = getelementptr inbounds i16, ptr %53, i64 %57
  %59 = load ptr, ptr %6, align 8, !tbaa !23
  %60 = load i32, ptr %7, align 4, !tbaa !17
  %61 = sext i32 %60 to i64
  %62 = mul i64 2, %61
  call void @llvm.memcpy.p0.p0.i64(ptr align 2 %58, ptr align 2 %59, i64 %62, i1 false)
  br label %63

63:                                               ; preds = %50
  %64 = load i32, ptr %7, align 4, !tbaa !17
  %65 = load ptr, ptr %5, align 8, !tbaa !4
  %66 = getelementptr inbounds nuw %struct.UString, ptr %65, i32 0, i32 1
  %67 = load i32, ptr %66, align 8, !tbaa !14
  %68 = add nsw i32 %67, %64
  store i32 %68, ptr %66, align 8, !tbaa !14
  %69 = load ptr, ptr %5, align 8, !tbaa !4
  %70 = getelementptr inbounds nuw %struct.UString, ptr %69, i32 0, i32 0
  %71 = load ptr, ptr %70, align 8, !tbaa !9
  %72 = load ptr, ptr %5, align 8, !tbaa !4
  %73 = getelementptr inbounds nuw %struct.UString, ptr %72, i32 0, i32 1
  %74 = load i32, ptr %73, align 8, !tbaa !14
  %75 = sext i32 %74 to i64
  %76 = getelementptr inbounds i16, ptr %71, i64 %75
  store i16 0, ptr %76, align 2, !tbaa !19
  br label %77

77:                                               ; preds = %63, %47, %12
  ret void
}