; Function Attrs: nounwind uwtable
define dso_local void @ustr_uscat(ptr noundef captures(none) %0, ptr noundef readonly captures(none) %1, i32 noundef %2, ptr noundef captures(none) %3) local_unnamed_addr #1 {
  %5 = load i32, ptr %3, align 4, !tbaa !4
  %6 = icmp sgt i32 %5, 0
  br i1 %6, label %41, label %7

7:                                                ; preds = %4
  %8 = getelementptr inbounds nuw i8, ptr %0, i64 12
  %9 = load i32, ptr %8, align 4, !tbaa !13
  %10 = getelementptr inbounds nuw i8, ptr %0, i64 8
  %11 = load i32, ptr %10, align 8, !tbaa !12
  %12 = add nsw i32 %11, %2
  %13 = icmp slt i32 %9, %12
  %.pre = load ptr, ptr %0, align 8, !tbaa !8
  br i1 %13, label %14, label %29

14:                                               ; preds = %7
  %15 = icmp slt i32 %12, 128
  %16 = shl nsw i32 %11, 1
  %17 = add nsw i32 %16, %2
  %18 = and i32 %17, -128
  %19 = add nsw i32 %18, 128
  %20 = select i1 %15, i32 128, i32 %19
  %21 = or disjoint i32 %20, 1
  %22 = sext i32 %21 to i64
  %23 = shl nsw i64 %22, 1
  %24 = tail call ptr @uprv_realloc_77(ptr noundef %.pre, i64 noundef %23) #9
  store ptr %24, ptr %0, align 8, !tbaa !8
  %25 = icmp eq ptr %24, null
  br i1 %25, label %26, label %ustr_resize.exit

26:                                               ; preds = %14
  store i32 7, ptr %3, align 4, !tbaa !4
  store i32 0, ptr %10, align 8, !tbaa !12
  br label %ustr_resize.exit

ustr_resize.exit:                                 ; preds = %14, %26
  %.sink = phi i32 [ 0, %26 ], [ %20, %14 ]
  store i32 %.sink, ptr %8, align 4, !tbaa !13
  %27 = load i32, ptr %3, align 4, !tbaa !4
  %28 = icmp sgt i32 %27, 0
  br i1 %28, label %41, label %ustr_resize.exit._crit_edge

ustr_resize.exit._crit_edge:                      ; preds = %ustr_resize.exit
  %.pre18 = load i32, ptr %10, align 8, !tbaa !12
  br label %29

29:                                               ; preds = %ustr_resize.exit._crit_edge, %7
  %30 = phi i32 [ %11, %7 ], [ %.pre18, %ustr_resize.exit._crit_edge ]
  %31 = phi ptr [ %.pre, %7 ], [ %24, %ustr_resize.exit._crit_edge ]
  %32 = sext i32 %30 to i64
  %33 = getelementptr inbounds i16, ptr %31, i64 %32
  %34 = sext i32 %2 to i64
  %35 = shl nsw i64 %34, 1
  tail call void @llvm.memcpy.p0.p0.i64(ptr align 2 %33, ptr align 2 %1, i64 %35, i1 false)
  %36 = load i32, ptr %10, align 8, !tbaa !12
  %37 = add nsw i32 %36, %2
  store i32 %37, ptr %10, align 8, !tbaa !12
  %38 = load ptr, ptr %0, align 8, !tbaa !8
  %39 = sext i32 %37 to i64
  %40 = getelementptr inbounds i16, ptr %38, i64 %39
  store i16 0, ptr %40, align 2, !tbaa !14
  br label %41

41:                                               ; preds = %ustr_resize.exit, %4, %29
  ret void
}